target datalayout = "e-m:e-p270:32:32-p271:32:32-p272:64:64-i64:64-i128:128-f80:128-n8:16:32:64-S128"
target triple = "x86_64-pc-linux-gnu"

%struct.ident_t = type { i32, i32, i32, i32, ptr }
%"struct.std::_Vector_base.14" = type { %"struct.std::_Vector_base<double, std::allocator<double>>::_Vector_impl" }
%"struct.std::_Vector_base<double, std::allocator<double>>::_Vector_impl" = type { %"struct.std::_Vector_base<double, std::allocator<double>>::_Vector_impl_data" }
%"struct.std::_Vector_base<double, std::allocator<double>>::_Vector_impl_data" = type { ptr, ptr, ptr }
%"class.LightGBM::ObjectiveFunction" = type { ptr }
%"class.std::vector" = type { %"struct.std::_Vector_base" }
%"struct.std::_Vector_base" = type { %"struct.std::_Vector_base<float, std::allocator<float>>::_Vector_impl" }
%"struct.std::_Vector_base<float, std::allocator<float>>::_Vector_impl" = type { %"struct.std::_Vector_base<float, std::allocator<float>>::_Vector_impl_data" }
%"struct.std::_Vector_base<float, std::allocator<float>>::_Vector_impl_data" = type { ptr, ptr, ptr }
%"struct.std::_Vector_base.19" = type { %"struct.std::_Vector_base<int, std::allocator<int>>::_Vector_impl" }
%"struct.std::_Vector_base<int, std::allocator<int>>::_Vector_impl" = type { %"struct.std::_Vector_base<int, std::allocator<int>>::_Vector_impl_data" }
%"struct.std::_Vector_base<int, std::allocator<int>>::_Vector_impl_data" = type { ptr, ptr, ptr }
%"class.LightGBM::RankingObjective" = type { %"class.LightGBM::ObjectiveFunction", i32, i32, i32, ptr, ptr, ptr, ptr, i32, ptr, %"class.std::vector", double, double }

@2 = private unnamed_addr constant %struct.ident_t { i32 0, i32 2, i32 0, i32 22, ptr @0 }, align 8

; Function Attrs: noinline noreturn nounwind uwtable
define linkonce_odr hidden void @__clang_call_terminate(ptr noundef %0) #10 comdat {
  %2 = call ptr @__cxa_begin_catch(ptr %0) #3
  call void @_ZSt9terminatev() #29
  unreachable
}

; Function Attrs: mustprogress nounwind uwtable
define linkonce_odr noundef nonnull align 4 dereferenceable(4) ptr @_ZNSt6vectorIiSaIiEEixEm(ptr noundef nonnull align 8 dereferenceable(24) %0, i64 noundef %1) #7 comdat align 2 {
  %3 = alloca ptr, align 8
  %4 = alloca i64, align 8
  store ptr %0, ptr %3, align 8, !tbaa !315
  store i64 %1, ptr %4, align 8, !tbaa !166
  %5 = load ptr, ptr %3, align 8
  %6 = getelementptr inbounds nuw %"struct.std::_Vector_base.19", ptr %5, i32 0, i32 0
  %7 = getelementptr inbounds nuw %"struct.std::_Vector_base<int, std::allocator<int>>::_Vector_impl_data", ptr %6, i32 0, i32 0
  %8 = load ptr, ptr %7, align 8, !tbaa !318
  %9 = load i64, ptr %4, align 8, !tbaa !166
  %10 = getelementptr inbounds nuw i32, ptr %8, i64 %9
  ret ptr %10
}

; Function Attrs: mustprogress nounwind uwtable
define linkonce_odr noundef nonnull align 8 dereferenceable(8) ptr @_ZNSt6vectorIdSaIdEEixEm(ptr noundef nonnull align 8 dereferenceable(24) %0, i64 noundef %1) #7 comdat align 2 {
  %3 = alloca ptr, align 8
  %4 = alloca i64, align 8
  store ptr %0, ptr %3, align 8, !tbaa !304
  store i64 %1, ptr %4, align 8, !tbaa !166
  %5 = load ptr, ptr %3, align 8
  %6 = getelementptr inbounds nuw %"struct.std::_Vector_base.14", ptr %5, i32 0, i32 0
  %7 = getelementptr inbounds nuw %"struct.std::_Vector_base<double, std::allocator<double>>::_Vector_impl_data", ptr %6, i32 0, i32 0
  %8 = load ptr, ptr %7, align 8, !tbaa !307
  %9 = load i64, ptr %4, align 8, !tbaa !166
  %10 = getelementptr inbounds nuw double, ptr %8, i64 %9
  ret ptr %10
}

; Function Attrs: alwaysinline norecurse nounwind uwtable
define internal void @_ZNK8LightGBM14LambdarankNDCG25UpdatePositionBiasFactorsEPKfS2_.omp_outlined(ptr noalias noundef %0, ptr noalias noundef %1, ptr noundef %2, ptr noundef nonnull align 8 dereferenceable(24) %3, ptr noundef nonnull align 8 dereferenceable(8) %4, ptr noundef nonnull align 8 dereferenceable(24) %5, ptr noundef nonnull align 8 dereferenceable(8) %6, ptr noundef nonnull align 8 dereferenceable(24) %7) #16 personality ptr @__gxx_personality_v0 {
  %9 = alloca ptr, align 8
  %10 = alloca ptr, align 8
  %11 = alloca ptr, align 8
  %12 = alloca ptr, align 8
  %13 = alloca ptr, align 8
  %14 = alloca ptr, align 8
  %15 = alloca ptr, align 8
  %16 = alloca ptr, align 8
  %17 = alloca i32, align 4
  %18 = alloca i32, align 4
  %19 = alloca i32, align 4
  %20 = alloca i32, align 4
  %21 = alloca i32, align 4
  %22 = alloca i32, align 4
  %23 = alloca i32, align 4
  %24 = alloca i32, align 4
  %25 = alloca i32, align 4
  %26 = alloca i32, align 4
  %27 = alloca i64, align 8
  store ptr %0, ptr %9, align 8, !tbaa !193
  store ptr %1, ptr %10, align 8, !tbaa !193
  store ptr %2, ptr %11, align 8, !tbaa !112
  store ptr %3, ptr %12, align 8, !tbaa !304
  store ptr %4, ptr %13, align 8, !tbaa !216
  store ptr %5, ptr %14, align 8, !tbaa !304
  store ptr %6, ptr %15, align 8, !tbaa !216
  store ptr %7, ptr %16, align 8, !tbaa !315
  %28 = load ptr, ptr %11, align 8, !tbaa !112
  %29 = load ptr, ptr %12, align 8, !tbaa !304
  %30 = load ptr, ptr %13, align 8, !tbaa !216
  %31 = load ptr, ptr %14, align 8, !tbaa !304
  %32 = load ptr, ptr %15, align 8, !tbaa !216
  %33 = load ptr, ptr %16, align 8, !tbaa !315
  call void @llvm.lifetime.start.p0(i64 4, ptr %17) #3
  call void @llvm.lifetime.start.p0(i64 4, ptr %18) #3
  %34 = getelementptr inbounds nuw %"class.LightGBM::RankingObjective", ptr %28, i32 0, i32 3
  %35 = load i32, ptr %34, align 8, !tbaa !608
  store i32 %35, ptr %18, align 4, !tbaa !141
  call void @llvm.lifetime.start.p0(i64 4, ptr %19) #3
  %36 = load i32, ptr %18, align 4, !tbaa !141
  %37 = sub nsw i32 %36, 0
  %38 = sdiv i32 %37, 1
  %39 = sub nsw i32 %38, 1
  store i32 %39, ptr %19, align 4, !tbaa !141
  call void @llvm.lifetime.start.p0(i64 4, ptr %20) #3
  store i32 0, ptr %20, align 4, !tbaa !141
  call void @llvm.lifetime.end.p0(i64 4, ptr %20) #3
  %40 = load i32, ptr %18, align 4, !tbaa !141
  %41 = icmp slt i32 0, %40
  br i1 %41, label %42, label %111

42:                                               ; preds = %8
  call void @llvm.lifetime.start.p0(i64 4, ptr %21) #3
  store i32 0, ptr %21, align 4, !tbaa !141
  call void @llvm.lifetime.start.p0(i64 4, ptr %22) #3
  %43 = load i32, ptr %19, align 4, !tbaa !141
  store i32 %43, ptr %22, align 4, !tbaa !141
  call void @llvm.lifetime.start.p0(i64 4, ptr %23) #3
  store i32 1, ptr %23, align 4, !tbaa !141
  call void @llvm.lifetime.start.p0(i64 4, ptr %24) #3
  store i32 0, ptr %24, align 4, !tbaa !141
  call void @llvm.lifetime.start.p0(i64 4, ptr %25) #3
  %44 = load i32, ptr %19, align 4, !tbaa !141
  %45 = load ptr, ptr %9, align 8
  %46 = load i32, ptr %45, align 4, !tbaa !141
  call void @__kmpc_dispatch_init_4(ptr @2, i32 %46, i32 1073741860, i32 0, i32 %44, i32 1, i32 1)
  br label %47

47:                                               ; preds = %107, %42
  %48 = load ptr, ptr %9, align 8
  %49 = load i32, ptr %48, align 4, !tbaa !141
  %50 = call i32 @__kmpc_dispatch_next_4(ptr @2, i32 %49, ptr %24, ptr %21, ptr %22, ptr %23)
  %51 = icmp ne i32 %50, 0
  br i1 %51, label %53, label %52

52:                                               ; preds = %47
  br label %108

53:                                               ; preds = %47
  %54 = load i32, ptr %21, align 4, !tbaa !141
  store i32 %54, ptr %17, align 4, !tbaa !141
  br label %55

55:                                               ; preds = %103, %53
  %56 = load i32, ptr %17, align 4, !tbaa !141, !llvm.access.group !679
  %57 = load i32, ptr %22, align 4, !tbaa !141, !llvm.access.group !679
  %58 = icmp sle i32 %56, %57
  br i1 %58, label %60, label %59

59:                                               ; preds = %55
  br label %106

60:                                               ; preds = %55
  %61 = load i32, ptr %17, align 4, !tbaa !141, !llvm.access.group !679
  %62 = mul nsw i32 %61, 1
  %63 = add nsw i32 0, %62
  store i32 %63, ptr %25, align 4, !tbaa !141, !llvm.access.group !679
  call void @llvm.lifetime.start.p0(i64 4, ptr %26) #3, !llvm.access.group !679
  %64 = invoke i32 @omp_get_thread_num()
          to label %65 unwind label %112, !llvm.access.group !679

65:                                               ; preds = %60
  store i32 %64, ptr %26, align 4, !tbaa !141, !llvm.access.group !679
  call void @llvm.lifetime.start.p0(i64 8, ptr %27) #3, !llvm.access.group !679
  %66 = getelementptr inbounds nuw %"class.LightGBM::RankingObjective", ptr %28, i32 0, i32 6
  %67 = load ptr, ptr %66, align 8, !tbaa !618, !llvm.access.group !679
  %68 = load i32, ptr %25, align 4, !tbaa !141, !llvm.access.group !679
  %69 = sext i32 %68 to i64
  %70 = getelementptr inbounds i32, ptr %67, i64 %69
  %71 = load i32, ptr %70, align 4, !tbaa !141, !llvm.access.group !679
  %72 = load i32, ptr %26, align 4, !tbaa !141, !llvm.access.group !679
  %73 = getelementptr inbounds nuw %"class.LightGBM::RankingObjective", ptr %28, i32 0, i32 8
  %74 = load i32, ptr %73, align 8, !tbaa !609, !llvm.access.group !679
  %75 = mul nsw i32 %72, %74
  %76 = add nsw i32 %71, %75
  %77 = sext i32 %76 to i64
  store i64 %77, ptr %27, align 8, !tbaa !166, !llvm.access.group !679
  %78 = load ptr, ptr %30, align 8, !tbaa !192, !llvm.access.group !679
  %79 = load i32, ptr %25, align 4, !tbaa !141, !llvm.access.group !679
  %80 = sext i32 %79 to i64
  %81 = getelementptr inbounds float, ptr %78, i64 %80
  %82 = load float, ptr %81, align 4, !tbaa !210, !llvm.access.group !679
  %83 = fpext float %82 to double
  %84 = load i64, ptr %27, align 8, !tbaa !166, !llvm.access.group !679
  %85 = call noundef nonnull align 8 dereferenceable(8) ptr @_ZNSt6vectorIdSaIdEEixEm(ptr noundef nonnull align 8 dereferenceable(24) %29, i64 noundef %84) #3, !llvm.access.group !679
  %86 = load double, ptr %85, align 8, !tbaa !194, !llvm.access.group !679
  %87 = fsub double %86, %83
  store double %87, ptr %85, align 8, !tbaa !194, !llvm.access.group !679
  %88 = load ptr, ptr %32, align 8, !tbaa !192, !llvm.access.group !679
  %89 = load i32, ptr %25, align 4, !tbaa !141, !llvm.access.group !679
  %90 = sext i32 %89 to i64
  %91 = getelementptr inbounds float, ptr %88, i64 %90
  %92 = load float, ptr %91, align 4, !tbaa !210, !llvm.access.group !679
  %93 = fpext float %92 to double
  %94 = load i64, ptr %27, align 8, !tbaa !166, !llvm.access.group !679
  %95 = call noundef nonnull align 8 dereferenceable(8) ptr @_ZNSt6vectorIdSaIdEEixEm(ptr noundef nonnull align 8 dereferenceable(24) %31, i64 noundef %94) #3, !llvm.access.group !679
  %96 = load double, ptr %95, align 8, !tbaa !194, !llvm.access.group !679
  %97 = fsub double %96, %93
  store double %97, ptr %95, align 8, !tbaa !194, !llvm.access.group !679
  %98 = load i64, ptr %27, align 8, !tbaa !166, !llvm.access.group !679
  %99 = call noundef nonnull align 4 dereferenceable(4) ptr @_ZNSt6vectorIiSaIiEEixEm(ptr noundef nonnull align 8 dereferenceable(24) %33, i64 noundef %98) #3, !llvm.access.group !679
  %100 = load i32, ptr %99, align 4, !tbaa !141, !llvm.access.group !679
  %101 = add nsw i32 %100, 1
  store i32 %101, ptr %99, align 4, !tbaa !141, !llvm.access.group !679
  call void @llvm.lifetime.end.p0(i64 8, ptr %27) #3, !llvm.access.group !679
  call void @llvm.lifetime.end.p0(i64 4, ptr %26) #3, !llvm.access.group !679
  br label %102

102:                                              ; preds = %65
  br label %103

103:                                              ; preds = %102
  %104 = load i32, ptr %17, align 4, !tbaa !141, !llvm.access.group !679
  %105 = add nsw i32 %104, 1
  store i32 %105, ptr %17, align 4, !tbaa !141, !llvm.access.group !679
  br label %55, !llvm.loop !680

106:                                              ; preds = %59
  br label %107

107:                                              ; preds = %106
  br label %47

108:                                              ; preds = %52
  %109 = load ptr, ptr %9, align 8
  %110 = load i32, ptr %109, align 4, !tbaa !141
  call void @__kmpc_dispatch_deinit(ptr @2, i32 %110)
  call void @llvm.lifetime.end.p0(i64 4, ptr %25) #3
  call void @llvm.lifetime.end.p0(i64 4, ptr %24) #3
  call void @llvm.lifetime.end.p0(i64 4, ptr %23) #3
  call void @llvm.lifetime.end.p0(i64 4, ptr %22) #3
  call void @llvm.lifetime.end.p0(i64 4, ptr %21) #3
  br label %111

111:                                              ; preds = %108, %8
  call void @llvm.lifetime.end.p0(i64 4, ptr %19) #3
  call void @llvm.lifetime.end.p0(i64 4, ptr %18) #3
  call void @llvm.lifetime.end.p0(i64 4, ptr %17) #3
  ret void

112:                                              ; preds = %60
  %113 = landingpad { ptr, i32 }
          catch ptr null
  %114 = extractvalue { ptr, i32 } %113, 0
  call void @__clang_call_terminate(ptr %114) #29, !llvm.access.group !679
  unreachable
}