; Function Attrs: alwaysinline norecurse nounwind uwtable
define internal void @_ZNK8LightGBM14LambdarankNDCG25UpdatePositionBiasFactorsEPKfS2_.omp_outlined(ptr noalias noundef readonly captures(none) %0, ptr noalias readnone captures(none) %1, ptr noundef readonly captures(none) %2, ptr noundef nonnull readonly align 8 captures(none) dereferenceable(24) %3, ptr noundef nonnull readonly align 8 captures(none) dereferenceable(8) %4, ptr noundef nonnull readonly align 8 captures(none) dereferenceable(24) %5, ptr noundef nonnull readonly align 8 captures(none) dereferenceable(8) %6, ptr noundef nonnull readonly align 8 captures(none) dereferenceable(24) %7) #14 personality ptr @__gxx_personality_v0 {
  %9 = alloca i32, align 4
  %10 = alloca i32, align 4
  %11 = alloca i32, align 4
  %12 = alloca i32, align 4
  %13 = getelementptr inbounds nuw i8, ptr %2, i64 16
  %14 = load i32, ptr %13, align 8, !tbaa !375
  %15 = icmp sgt i32 %14, 0
  br i1 %15, label %16, label %57

16:                                               ; preds = %8
  %17 = add nsw i32 %14, -1
  call void @llvm.lifetime.start.p0(i64 4, ptr nonnull %9) #15
  store i32 0, ptr %9, align 4, !tbaa !127
  call void @llvm.lifetime.start.p0(i64 4, ptr nonnull %10) #15
  store i32 %17, ptr %10, align 4, !tbaa !127
  call void @llvm.lifetime.start.p0(i64 4, ptr nonnull %11) #15
  store i32 1, ptr %11, align 4, !tbaa !127
  call void @llvm.lifetime.start.p0(i64 4, ptr nonnull %12) #15
  store i32 0, ptr %12, align 4, !tbaa !127
  %18 = load i32, ptr %0, align 4, !tbaa !127
  tail call void @__kmpc_dispatch_init_4(ptr nonnull @2, i32 %18, i32 1073741860, i32 0, i32 %17, i32 1, i32 1)
  %19 = call i32 @__kmpc_dispatch_next_4(ptr nonnull @2, i32 %18, ptr nonnull %12, ptr nonnull %9, ptr nonnull %10, ptr nonnull %11)
  %.not25 = icmp eq i32 %19, 0
  br i1 %.not25, label %._crit_edge, label %.lr.ph26

.lr.ph26:                                         ; preds = %16
  %20 = getelementptr inbounds nuw i8, ptr %2, i64 40
  %21 = getelementptr inbounds nuw i8, ptr %2, i64 56
  br label %23

.loopexit:                                        ; preds = %.lr.ph, %23
  %22 = call i32 @__kmpc_dispatch_next_4(ptr nonnull @2, i32 %18, ptr nonnull %12, ptr nonnull %9, ptr nonnull %10, ptr nonnull %11)
  %.not = icmp eq i32 %22, 0
  br i1 %.not, label %._crit_edge, label %23

23:                                               ; preds = %.lr.ph26, %.loopexit
  %24 = load i32, ptr %9, align 4, !tbaa !127
  %25 = load i32, ptr %10, align 4, !tbaa !127, !llvm.access.group !421
  %.not2223 = icmp sgt i32 %24, %25
  br i1 %.not2223, label %.loopexit, label %.lr.ph.preheader

.lr.ph.preheader:                                 ; preds = %23
  %26 = sext i32 %24 to i64
  br label %.lr.ph

.lr.ph:                                           ; preds = %.lr.ph.preheader, %.lr.ph
  %indvars.iv = phi i64 [ %26, %.lr.ph.preheader ], [ %indvars.iv.next, %.lr.ph ]
  %27 = call i32 @omp_get_thread_num(), !llvm.access.group !421
  %28 = load ptr, ptr %20, align 8, !tbaa !393, !llvm.access.group !421
  %29 = getelementptr inbounds i32, ptr %28, i64 %indvars.iv
  %30 = load i32, ptr %29, align 4, !tbaa !127, !llvm.access.group !421
  %31 = load i32, ptr %21, align 8, !tbaa !376, !llvm.access.group !421
  %32 = mul nsw i32 %31, %27
  %33 = add nsw i32 %32, %30
  %34 = sext i32 %33 to i64
  %35 = load ptr, ptr %4, align 8, !tbaa !150, !llvm.access.group !421
  %36 = getelementptr inbounds float, ptr %35, i64 %indvars.iv
  %37 = load float, ptr %36, align 4, !tbaa !175, !llvm.access.group !421
  %38 = fpext float %37 to double
  %39 = load ptr, ptr %3, align 8, !tbaa !117, !llvm.access.group !421
  %40 = getelementptr inbounds nuw double, ptr %39, i64 %34
  %41 = load double, ptr %40, align 8, !tbaa !153, !llvm.access.group !421
  %42 = fsub double %41, %38
  store double %42, ptr %40, align 8, !tbaa !153, !llvm.access.group !421
  %43 = load ptr, ptr %6, align 8, !tbaa !150, !llvm.access.group !421
  %44 = getelementptr inbounds float, ptr %43, i64 %indvars.iv
  %45 = load float, ptr %44, align 4, !tbaa !175, !llvm.access.group !421
  %46 = fpext float %45 to double
  %47 = load ptr, ptr %5, align 8, !tbaa !117, !llvm.access.group !421
  %48 = getelementptr inbounds nuw double, ptr %47, i64 %34
  %49 = load double, ptr %48, align 8, !tbaa !153, !llvm.access.group !421
  %50 = fsub double %49, %46
  store double %50, ptr %48, align 8, !tbaa !153, !llvm.access.group !421
  %51 = load ptr, ptr %7, align 8, !tbaa !389, !llvm.access.group !421
  %52 = getelementptr inbounds nuw i32, ptr %51, i64 %34
  %53 = load i32, ptr %52, align 4, !tbaa !127, !llvm.access.group !421
  %54 = add nsw i32 %53, 1
  store i32 %54, ptr %52, align 4, !tbaa !127, !llvm.access.group !421
  %indvars.iv.next = add nsw i64 %indvars.iv, 1
  %55 = load i32, ptr %10, align 4, !tbaa !127, !llvm.access.group !421
  %56 = sext i32 %55 to i64
  %.not22.not = icmp slt i64 %indvars.iv, %56
  br i1 %.not22.not, label %.lr.ph, label %.loopexit, !llvm.loop !422

._crit_edge:                                      ; preds = %.loopexit, %16
  call void @__kmpc_dispatch_deinit(ptr nonnull @2, i32 %18)
  call void @llvm.lifetime.end.p0(i64 4, ptr nonnull %12) #15
  call void @llvm.lifetime.end.p0(i64 4, ptr nonnull %11) #15
  call void @llvm.lifetime.end.p0(i64 4, ptr nonnull %10) #15
  call void @llvm.lifetime.end.p0(i64 4, ptr nonnull %9) #15
  br label %57

57:                                               ; preds = %._crit_edge, %8
  ret void
}